target datalayout = "e-m:e-p270:32:32-p271:32:32-p272:64:64-i64:64-i128:128-f80:128-n8:16:32:64-S128"
target triple = "x86_64-pc-linux-gnu"

%class.Phase = type { i32, ptr }
%class.GrowableArrayBase = type { i32, i32 }
%class.GrowableArrayMetadata = type { i64 }
%class.PhaseIdealLoop = type <{ %class.PhaseTransform, %class.Node_List, ptr, ptr, ptr, i32, [4 x i8], ptr, i8, [7 x i8], %class.Node_List, %class.Node_List, %class.GrowableArray.12, i32, i32, ptr, ptr, ptr, i32, i8, [3 x i8], i32, i8, [3 x i8] }>
%class.PhaseTransform = type { ptr, %class.Phase }
%class.Node_List = type <{ %class.Node_Array, i32, [4 x i8] }>
%class.Node_Array = type { ptr, i32, ptr }
%class.GrowableArray.12 = type { %class.GrowableArrayWithAllocator.13, %class.GrowableArrayMetadata }
%class.GrowableArrayWithAllocator.13 = type { %class.GrowableArrayView.14 }
%class.GrowableArrayView.14 = type { %class.GrowableArrayBase, ptr }
%class.Node = type <{ ptr, ptr, ptr, i32, i32, i32, i32, i32, i32, i32, [4 x i8] }>
%class.IdealLoopTree = type <{ ptr, ptr, ptr, ptr, ptr, ptr, i32, i32, %class.Node_List, i16, i8, [5 x i8], ptr, ptr, i8, [7 x i8] }>

; Function Attrs: mustprogress nounwind uwtable
define linkonce_odr hidden noundef ptr @_ZNK14PhaseIdealLoop14idom_no_updateEj(ptr noundef nonnull align 8 dereferenceable(237) %0, i32 noundef %1) #1 comdat align 2 {
  %3 = alloca ptr, align 8
  %4 = alloca i32, align 4
  %5 = alloca ptr, align 8
  store ptr %0, ptr %3, align 8
  store i32 %1, ptr %4, align 4
  %6 = load ptr, ptr %3, align 8
  %7 = getelementptr inbounds %class.PhaseIdealLoop, ptr %6, i32 0, i32 15
  %8 = load ptr, ptr %7, align 8
  %9 = load i32, ptr %4, align 4
  %10 = zext i32 %9 to i64
  %11 = getelementptr inbounds ptr, ptr %8, i64 %10
  %12 = load ptr, ptr %11, align 8
  store ptr %12, ptr %5, align 8
  br label %13

13:                                               ; preds = %17, %2
  %14 = load ptr, ptr %5, align 8
  %15 = call noundef ptr @_ZNK4Node2inEj(ptr noundef nonnull align 8 dereferenceable(52) %14, i32 noundef 0)
  %16 = icmp eq ptr %15, null
  br i1 %16, label %17, label %26

17:                                               ; preds = %13
  %18 = getelementptr inbounds %class.PhaseIdealLoop, ptr %6, i32 0, i32 1
  %19 = load ptr, ptr %5, align 8
  %20 = getelementptr inbounds %class.Node, ptr %19, i32 0, i32 7
  %21 = load i32, ptr %20, align 8
  %22 = call noundef ptr @_ZNK10Node_ArrayixEj(ptr noundef nonnull align 8 dereferenceable(24) %18, i32 noundef %21)
  %23 = ptrtoint ptr %22 to i64
  %24 = and i64 %23, -2
  %25 = inttoptr i64 %24 to ptr
  store ptr %25, ptr %5, align 8
  br label %13, !llvm.loop !93

26:                                               ; preds = %13
  %27 = load ptr, ptr %5, align 8
  ret ptr %27
}

; Function Attrs: mustprogress nounwind uwtable
define linkonce_odr hidden noundef ptr @_ZNK14PhaseIdealLoop4idomEj(ptr noundef nonnull align 8 dereferenceable(237) %0, i32 noundef %1) #1 comdat align 2 {
  %3 = alloca ptr, align 8
  %4 = alloca i32, align 4
  %5 = alloca ptr, align 8
  store ptr %0, ptr %3, align 8
  store i32 %1, ptr %4, align 4
  %6 = load ptr, ptr %3, align 8
  %7 = load i32, ptr %4, align 4
  %8 = call noundef ptr @_ZNK14PhaseIdealLoop14idom_no_updateEj(ptr noundef nonnull align 8 dereferenceable(237) %6, i32 noundef %7)
  store ptr %8, ptr %5, align 8
  %9 = load ptr, ptr %5, align 8
  %10 = getelementptr inbounds %class.PhaseIdealLoop, ptr %6, i32 0, i32 15
  %11 = load ptr, ptr %10, align 8
  %12 = load i32, ptr %4, align 4
  %13 = zext i32 %12 to i64
  %14 = getelementptr inbounds ptr, ptr %11, i64 %13
  store ptr %9, ptr %14, align 8
  %15 = load ptr, ptr %5, align 8
  ret ptr %15
}

; Function Attrs: mustprogress nounwind uwtable
define linkonce_odr hidden noundef zeroext i1 @_ZNK4Node11is_CallLeafEv(ptr noundef nonnull align 8 dereferenceable(52) %0) #1 comdat align 2 {
  %2 = alloca ptr, align 8
  store ptr %0, ptr %2, align 8
  %3 = load ptr, ptr %2, align 8
  %4 = getelementptr inbounds %class.Node, ptr %3, i32 0, i32 8
  %5 = load i32, ptr %4, align 4
  %6 = and i32 %5, 63
  %7 = icmp eq i32 %6, 55
  ret i1 %7
}

; Function Attrs: mustprogress nounwind uwtable
define linkonce_odr hidden noundef zeroext i1 @_ZNK4Node12is_SafePointEv(ptr noundef nonnull align 8 dereferenceable(52) %0) #1 comdat align 2 {
  %2 = alloca ptr, align 8
  store ptr %0, ptr %2, align 8
  %3 = load ptr, ptr %2, align 8
  %4 = getelementptr inbounds %class.Node, ptr %3, i32 0, i32 8
  %5 = load i32, ptr %4, align 4
  %6 = and i32 %5, 3
  %7 = icmp eq i32 %6, 3
  ret i1 %7
}

; Function Attrs: mustprogress nounwind uwtable
define linkonce_odr hidden noundef ptr @_ZNK10Node_ArrayixEj(ptr noundef nonnull align 8 dereferenceable(24) %0, i32 noundef %1) #1 comdat align 2 {
  %3 = alloca ptr, align 8
  %4 = alloca i32, align 4
  store ptr %0, ptr %3, align 8
  store i32 %1, ptr %4, align 4
  %5 = load ptr, ptr %3, align 8
  %6 = load i32, ptr %4, align 4
  %7 = getelementptr inbounds %class.Node_Array, ptr %5, i32 0, i32 1
  %8 = load i32, ptr %7, align 8
  %9 = icmp ult i32 %6, %8
  br i1 %9, label %10, label %17

10:                                               ; preds = %2
  %11 = getelementptr inbounds %class.Node_Array, ptr %5, i32 0, i32 2
  %12 = load ptr, ptr %11, align 8
  %13 = load i32, ptr %4, align 4
  %14 = zext i32 %13 to i64
  %15 = getelementptr inbounds ptr, ptr %12, i64 %14
  %16 = load ptr, ptr %15, align 8
  br label %18

17:                                               ; preds = %2
  br label %18

18:                                               ; preds = %17, %10
  %19 = phi ptr [ %16, %10 ], [ null, %17 ]
  ret ptr %19
}

; Function Attrs: mustprogress nounwind uwtable
define linkonce_odr hidden noundef i32 @_ZNK9Node_List4sizeEv(ptr noundef nonnull align 8 dereferenceable(28) %0) #1 comdat align 2 {
  %2 = alloca ptr, align 8
  store ptr %0, ptr %2, align 8
  %3 = load ptr, ptr %2, align 8
  %4 = getelementptr inbounds %class.Node_List, ptr %3, i32 0, i32 1
  %5 = load i32, ptr %4, align 8
  ret i32 %5
}

; Function Attrs: mustprogress nounwind uwtable
define hidden noundef zeroext i1 @_ZN26ShenandoahBarrierC2Support19is_heap_stable_testEP4Node(ptr noundef %0) #1 align 2 {
  %2 = alloca ptr, align 8
  store ptr %0, ptr %2, align 8
  %3 = load ptr, ptr %2, align 8
  %4 = call noundef zeroext i1 @_ZN26ShenandoahBarrierC2Support16is_gc_state_testEP4Nodei(ptr noundef %3, i32 noundef 1)
  ret i1 %4
}

; Function Attrs: mustprogress nounwind uwtable
define linkonce_odr hidden noundef zeroext i1 @_ZNK4Node6is_CmpEv(ptr noundef nonnull align 8 dereferenceable(52) %0) #1 comdat align 2 {
  %2 = alloca ptr, align 8
  store ptr %0, ptr %2, align 8
  %3 = load ptr, ptr %2, align 8
  %4 = getelementptr inbounds %class.Node, ptr %3, i32 0, i32 8
  %5 = load i32, ptr %4, align 4
  %6 = and i32 %5, 255
  %7 = icmp eq i32 %6, 192
  ret i1 %7
}

; Function Attrs: mustprogress nounwind uwtable
define linkonce_odr hidden noundef ptr @_ZNK4Node7as_BoolEv(ptr noundef nonnull align 8 dereferenceable(52) %0) #1 comdat align 2 {
  %2 = alloca ptr, align 8
  store ptr %0, ptr %2, align 8
  %3 = load ptr, ptr %2, align 8
  ret ptr %3
}

; Function Attrs: mustprogress nounwind uwtable
define linkonce_odr hidden noundef zeroext i1 @_ZNK4Node7is_BoolEv(ptr noundef nonnull align 8 dereferenceable(52) %0) #1 comdat align 2 {
  %2 = alloca ptr, align 8
  store ptr %0, ptr %2, align 8
  %3 = load ptr, ptr %2, align 8
  %4 = getelementptr inbounds %class.Node, ptr %3, i32 0, i32 8
  %5 = load i32, ptr %4, align 4
  %6 = and i32 %5, 511
  %7 = icmp eq i32 %6, 256
  ret i1 %7
}

; Function Attrs: mustprogress nounwind uwtable
define linkonce_odr hidden noundef ptr @_ZNK4Node5as_IfEv(ptr noundef nonnull align 8 dereferenceable(52) %0) #1 comdat align 2 {
  %2 = alloca ptr, align 8
  store ptr %0, ptr %2, align 8
  %3 = load ptr, ptr %2, align 8
  ret ptr %3
}

; Function Attrs: mustprogress nounwind uwtable
define linkonce_odr hidden noundef zeroext i1 @_ZNK4Node5is_IfEv(ptr noundef nonnull align 8 dereferenceable(52) %0) #1 comdat align 2 {
  %2 = alloca ptr, align 8
  store ptr %0, ptr %2, align 8
  %3 = load ptr, ptr %2, align 8
  %4 = getelementptr inbounds %class.Node, ptr %3, i32 0, i32 8
  %5 = load i32, ptr %4, align 4
  %6 = and i32 %5, 31
  %7 = icmp eq i32 %6, 21
  ret i1 %7
}

; Function Attrs: mustprogress nounwind uwtable
define linkonce_odr hidden noundef zeroext i1 @_ZNK4Node9is_RegionEv(ptr noundef nonnull align 8 dereferenceable(52) %0) #1 comdat align 2 {
  %2 = alloca ptr, align 8
  store ptr %0, ptr %2, align 8
  %3 = load ptr, ptr %2, align 8
  %4 = getelementptr inbounds %class.Node, ptr %3, i32 0, i32 8
  %5 = load i32, ptr %4, align 4
  %6 = and i32 %5, 63
  %7 = icmp eq i32 %6, 32
  ret i1 %7
}

; Function Attrs: mustprogress nounwind uwtable
define linkonce_odr hidden noundef ptr @_ZNK14PhaseIdealLoop4idomEP4Node(ptr noundef nonnull align 8 dereferenceable(237) %0, ptr noundef %1) #1 comdat align 2 {
  %3 = alloca ptr, align 8
  %4 = alloca ptr, align 8
  store ptr %0, ptr %3, align 8
  store ptr %1, ptr %4, align 8
  %5 = load ptr, ptr %3, align 8
  %6 = load ptr, ptr %4, align 8
  %7 = getelementptr inbounds %class.Node, ptr %6, i32 0, i32 7
  %8 = load i32, ptr %7, align 8
  %9 = call noundef ptr @_ZNK14PhaseIdealLoop4idomEj(ptr noundef nonnull align 8 dereferenceable(237) %5, i32 noundef %8)
  ret ptr %9
}

; Function Attrs: mustprogress nounwind uwtable
define linkonce_odr hidden noundef ptr @_ZNK4Node2inEj(ptr noundef nonnull align 8 dereferenceable(52) %0, i32 noundef %1) #1 comdat align 2 {
  %3 = alloca ptr, align 8
  %4 = alloca i32, align 4
  store ptr %0, ptr %3, align 8
  store i32 %1, ptr %4, align 4
  %5 = load ptr, ptr %3, align 8
  %6 = getelementptr inbounds %class.Node, ptr %5, i32 0, i32 1
  %7 = load ptr, ptr %6, align 8
  %8 = load i32, ptr %4, align 4
  %9 = zext i32 %8 to i64
  %10 = getelementptr inbounds ptr, ptr %7, i64 %9
  %11 = load ptr, ptr %10, align 8
  ret ptr %11
}

; Function Attrs: mustprogress nounwind uwtable
define linkonce_odr hidden noundef ptr @_ZNK4Node7as_LoopEv(ptr noundef nonnull align 8 dereferenceable(52) %0) #1 comdat align 2 {
  %2 = alloca ptr, align 8
  store ptr %0, ptr %2, align 8
  %3 = load ptr, ptr %2, align 8
  ret ptr %3
}

; Function Attrs: mustprogress nounwind uwtable
define hidden noundef ptr @_ZN26ShenandoahBarrierC2Support26find_unswitching_candidateEPK13IdealLoopTreeP14PhaseIdealLoop(ptr noundef %0, ptr noundef %1) #1 align 2 {
  %3 = alloca ptr, align 8
  %4 = alloca ptr, align 8
  %5 = alloca ptr, align 8
  %6 = alloca ptr, align 8
  %7 = alloca ptr, align 8
  %8 = alloca i32, align 4
  %9 = alloca ptr, align 8
  %10 = alloca ptr, align 8
  %11 = alloca ptr, align 8
  %12 = alloca i32, align 4
  %13 = alloca ptr, align 8
  store ptr %0, ptr %3, align 8
  store ptr %1, ptr %4, align 8
  %14 = load ptr, ptr %3, align 8
  %15 = getelementptr inbounds %class.IdealLoopTree, ptr %14, i32 0, i32 3
  %16 = load ptr, ptr %15, align 8
  %17 = call noundef ptr @_ZNK4Node7as_LoopEv(ptr noundef nonnull align 8 dereferenceable(52) %16)
  store ptr %17, ptr %5, align 8
  store ptr null, ptr %6, align 8
  %18 = load ptr, ptr %5, align 8
  %19 = call noundef ptr @_ZNK4Node2inEj(ptr noundef nonnull align 8 dereferenceable(52) %18, i32 noundef 2)
  store ptr %19, ptr %7, align 8
  store i32 -1, ptr %8, align 4
  br label %20

20:                                               ; preds = %95, %2
  %21 = load ptr, ptr %7, align 8
  %22 = load ptr, ptr %5, align 8
  %23 = icmp ne ptr %21, %22
  br i1 %23, label %24, label %97

24:                                               ; preds = %20
  %25 = load ptr, ptr %4, align 8
  %26 = load ptr, ptr %7, align 8
  %27 = call noundef ptr @_ZNK14PhaseIdealLoop4idomEP4Node(ptr noundef nonnull align 8 dereferenceable(237) %25, ptr noundef %26)
  store ptr %27, ptr %9, align 8
  %28 = load ptr, ptr %7, align 8
  %29 = call noundef zeroext i1 @_ZNK4Node9is_RegionEv(ptr noundef nonnull align 8 dereferenceable(52) %28)
  br i1 %29, label %30, label %95

30:                                               ; preds = %24
  %31 = load ptr, ptr %9, align 8
  %32 = call noundef zeroext i1 @_ZNK4Node5is_IfEv(ptr noundef nonnull align 8 dereferenceable(52) %31)
  br i1 %32, label %33, label %94

33:                                               ; preds = %30
  %34 = load ptr, ptr %9, align 8
  %35 = call noundef ptr @_ZNK4Node5as_IfEv(ptr noundef nonnull align 8 dereferenceable(52) %34)
  store ptr %35, ptr %10, align 8
  %36 = load ptr, ptr %10, align 8
  %37 = call noundef ptr @_ZNK4Node2inEj(ptr noundef nonnull align 8 dereferenceable(52) %36, i32 noundef 1)
  %38 = call noundef zeroext i1 @_ZNK4Node7is_BoolEv(ptr noundef nonnull align 8 dereferenceable(52) %37)
  br i1 %38, label %39, label %93

39:                                               ; preds = %33
  %40 = load ptr, ptr %10, align 8
  %41 = call noundef ptr @_ZNK4Node2inEj(ptr noundef nonnull align 8 dereferenceable(52) %40, i32 noundef 1)
  %42 = call noundef ptr @_ZNK4Node7as_BoolEv(ptr noundef nonnull align 8 dereferenceable(52) %41)
  store ptr %42, ptr %11, align 8
  %43 = load ptr, ptr %11, align 8
  %44 = call noundef ptr @_ZNK4Node2inEj(ptr noundef nonnull align 8 dereferenceable(52) %43, i32 noundef 1)
  %45 = call noundef zeroext i1 @_ZNK4Node6is_CmpEv(ptr noundef nonnull align 8 dereferenceable(52) %44)
  br i1 %45, label %46, label %92

46:                                               ; preds = %39
  %47 = load ptr, ptr %10, align 8
  %48 = call noundef zeroext i1 @_ZN26ShenandoahBarrierC2Support19is_heap_stable_testEP4Node(ptr noundef %47)
  br i1 %48, label %49, label %91

49:                                               ; preds = %46
  %50 = load i32, ptr %8, align 4
  %51 = icmp eq i32 %50, -1
  br i1 %51, label %55, label %52

52:                                               ; preds = %49
  %53 = load i32, ptr %8, align 4
  %54 = icmp eq i32 %53, 0
  br i1 %54, label %55, label %91

55:                                               ; preds = %52, %49
  %56 = load i32, ptr %8, align 4
  %57 = icmp eq i32 %56, -1
  br i1 %57, label %58, label %85

58:                                               ; preds = %55
  store i32 0, ptr %12, align 4
  br label %59

59:                                               ; preds = %77, %58
  %60 = load i32, ptr %12, align 4
  %61 = load ptr, ptr %3, align 8
  %62 = getelementptr inbounds %class.IdealLoopTree, ptr %61, i32 0, i32 8
  %63 = call noundef i32 @_ZNK9Node_List4sizeEv(ptr noundef nonnull align 8 dereferenceable(28) %62)
  %64 = icmp ult i32 %60, %63
  br i1 %64, label %65, label %80

65:                                               ; preds = %59
  %66 = load ptr, ptr %3, align 8
  %67 = getelementptr inbounds %class.IdealLoopTree, ptr %66, i32 0, i32 8
  %68 = load i32, ptr %12, align 4
  %69 = call noundef ptr @_ZNK10Node_ArrayixEj(ptr noundef nonnull align 8 dereferenceable(24) %67, i32 noundef %68)
  store ptr %69, ptr %13, align 8
  %70 = load ptr, ptr %13, align 8
  %71 = call noundef zeroext i1 @_ZNK4Node12is_SafePointEv(ptr noundef nonnull align 8 dereferenceable(52) %70)
  br i1 %71, label %72, label %76

72:                                               ; preds = %65
  %73 = load ptr, ptr %13, align 8
  %74 = call noundef zeroext i1 @_ZNK4Node11is_CallLeafEv(ptr noundef nonnull align 8 dereferenceable(52) %73)
  br i1 %74, label %76, label %75

75:                                               ; preds = %72
  store i32 1, ptr %8, align 4
  br label %80

76:                                               ; preds = %72, %65
  br label %77

77:                                               ; preds = %76
  %78 = load i32, ptr %12, align 4
  %79 = add i32 %78, 1
  store i32 %79, ptr %12, align 4
  br label %59, !llvm.loop !56

80:                                               ; preds = %75, %59
  %81 = load i32, ptr %8, align 4
  %82 = icmp eq i32 %81, -1
  br i1 %82, label %83, label %84

83:                                               ; preds = %80
  store i32 0, ptr %8, align 4
  br label %84

84:                                               ; preds = %83, %80
  br label %85

85:                                               ; preds = %84, %55
  %86 = load i32, ptr %8, align 4
  %87 = icmp ne i32 %86, 0
  br i1 %87, label %90, label %88

88:                                               ; preds = %85
  %89 = load ptr, ptr %10, align 8
  store ptr %89, ptr %6, align 8
  br label %90

90:                                               ; preds = %88, %85
  br label %91

91:                                               ; preds = %90, %52, %46
  br label %92

92:                                               ; preds = %91, %39
  br label %93

93:                                               ; preds = %92, %33
  br label %94

94:                                               ; preds = %93, %30
  br label %95

95:                                               ; preds = %94, %24
  %96 = load ptr, ptr %9, align 8
  store ptr %96, ptr %7, align 8
  br label %20, !llvm.loop !57

97:                                               ; preds = %20
  %98 = load ptr, ptr %6, align 8
  ret ptr %98
}