; Function Attrs: mustprogress nounwind uwtable
define hidden noundef ptr @_ZN26ShenandoahBarrierC2Support26find_unswitching_candidateEPK13IdealLoopTreeP14PhaseIdealLoop(ptr nocapture noundef readonly %0, ptr nocapture noundef readonly %1) local_unnamed_addr #0 align 2 {
  %3 = getelementptr inbounds i8, ptr %0, i64 24
  %4 = load ptr, ptr %3, align 8
  %5 = getelementptr inbounds i8, ptr %4, i64 8
  %6 = load ptr, ptr %5, align 8
  %7 = getelementptr inbounds i8, ptr %6, i64 16
  %8 = load ptr, ptr %7, align 8
  %.not48 = icmp eq ptr %8, %4
  br i1 %.not48, label %._crit_edge, label %.lr.ph

.lr.ph:                                           ; preds = %2
  %9 = getelementptr inbounds i8, ptr %1, i64 200
  %10 = getelementptr inbounds i8, ptr %1, i64 32
  %11 = getelementptr inbounds i8, ptr %1, i64 40
  %12 = getelementptr inbounds i8, ptr %0, i64 80
  %13 = getelementptr inbounds i8, ptr %0, i64 64
  %14 = getelementptr inbounds i8, ptr %0, i64 72
  br label %15

15:                                               ; preds = %.lr.ph, %.loopexit
  %.051 = phi ptr [ null, %.lr.ph ], [ %.1, %.loopexit ]
  %.02950 = phi ptr [ %8, %.lr.ph ], [ %.0.lcssa.i.i.i, %.loopexit ]
  %.03049 = phi i32 [ -1, %.lr.ph ], [ %.3, %.loopexit ]
  %16 = getelementptr inbounds i8, ptr %.02950, i64 40
  %17 = load i32, ptr %16, align 8
  %18 = load ptr, ptr %9, align 8
  %19 = zext i32 %17 to i64
  %20 = getelementptr inbounds ptr, ptr %18, i64 %19
  %21 = load ptr, ptr %20, align 8
  %22 = getelementptr inbounds i8, ptr %21, i64 8
  %23 = load ptr, ptr %22, align 8
  %24 = load ptr, ptr %23, align 8
  %25 = icmp eq ptr %24, null
  br i1 %25, label %.lr.ph.i.i.i, label %_ZNK14PhaseIdealLoop4idomEP4Node.exit

.lr.ph.i.i.i:                                     ; preds = %15
  %26 = load i32, ptr %10, align 8
  %27 = load ptr, ptr %11, align 8
  br label %28

28:                                               ; preds = %_ZNK10Node_ArrayixEj.exit.i.i.i, %.lr.ph.i.i.i
  %.04.i.i.i = phi ptr [ %21, %.lr.ph.i.i.i ], [ %39, %_ZNK10Node_ArrayixEj.exit.i.i.i ]
  %29 = getelementptr inbounds i8, ptr %.04.i.i.i, i64 40
  %30 = load i32, ptr %29, align 8
  %31 = icmp ugt i32 %26, %30
  br i1 %31, label %32, label %_ZNK10Node_ArrayixEj.exit.i.i.i

32:                                               ; preds = %28
  %33 = zext i32 %30 to i64
  %34 = getelementptr inbounds ptr, ptr %27, i64 %33
  %35 = load ptr, ptr %34, align 8
  br label %_ZNK10Node_ArrayixEj.exit.i.i.i

_ZNK10Node_ArrayixEj.exit.i.i.i:                  ; preds = %32, %28
  %36 = phi ptr [ %35, %32 ], [ null, %28 ]
  %37 = ptrtoint ptr %36 to i64
  %38 = and i64 %37, -2
  %39 = inttoptr i64 %38 to ptr
  %40 = getelementptr inbounds i8, ptr %39, i64 8
  %41 = load ptr, ptr %40, align 8
  %42 = load ptr, ptr %41, align 8
  %43 = icmp eq ptr %42, null
  br i1 %43, label %28, label %_ZNK14PhaseIdealLoop4idomEP4Node.exit, !llvm.loop !13

_ZNK14PhaseIdealLoop4idomEP4Node.exit:            ; preds = %_ZNK10Node_ArrayixEj.exit.i.i.i, %15
  %.0.lcssa.i.i.i = phi ptr [ %21, %15 ], [ %39, %_ZNK10Node_ArrayixEj.exit.i.i.i ]
  store ptr %.0.lcssa.i.i.i, ptr %20, align 8
  %44 = getelementptr inbounds i8, ptr %.02950, i64 44
  %45 = load i32, ptr %44, align 4
  %46 = and i32 %45, 63
  %47 = icmp eq i32 %46, 32
  br i1 %47, label %48, label %.loopexit

48:                                               ; preds = %_ZNK14PhaseIdealLoop4idomEP4Node.exit
  %49 = getelementptr inbounds i8, ptr %.0.lcssa.i.i.i, i64 44
  %50 = load i32, ptr %49, align 4
  %51 = and i32 %50, 31
  %52 = icmp eq i32 %51, 21
  br i1 %52, label %53, label %.loopexit

53:                                               ; preds = %48
  %54 = getelementptr inbounds i8, ptr %.0.lcssa.i.i.i, i64 8
  %55 = load ptr, ptr %54, align 8
  %56 = getelementptr inbounds i8, ptr %55, i64 8
  %57 = load ptr, ptr %56, align 8
  %58 = getelementptr inbounds i8, ptr %57, i64 44
  %59 = load i32, ptr %58, align 4
  %60 = and i32 %59, 511
  %61 = icmp eq i32 %60, 256
  br i1 %61, label %62, label %.loopexit

62:                                               ; preds = %53
  %63 = getelementptr inbounds i8, ptr %57, i64 8
  %64 = load ptr, ptr %63, align 8
  %65 = getelementptr inbounds i8, ptr %64, i64 8
  %66 = load ptr, ptr %65, align 8
  %67 = getelementptr inbounds i8, ptr %66, i64 44
  %68 = load i32, ptr %67, align 4
  %69 = and i32 %68, 255
  %70 = icmp eq i32 %69, 192
  br i1 %70, label %71, label %.loopexit

71:                                               ; preds = %62
  %72 = tail call noundef zeroext i1 @_ZN26ShenandoahBarrierC2Support16is_gc_state_testEP4Nodei(ptr noundef nonnull %.0.lcssa.i.i.i, i32 noundef 1)
  %73 = add nsw i32 %.03049, 1
  %or.cond = icmp ult i32 %73, 2
  %or.cond34 = select i1 %72, i1 %or.cond, i1 false
  br i1 %or.cond34, label %74, label %.loopexit

74:                                               ; preds = %71
  %75 = icmp eq i32 %.03049, -1
  br i1 %75, label %.preheader, label %.loopexit

.preheader:                                       ; preds = %74
  %76 = load i32, ptr %12, align 8
  %.not3243.not = icmp eq i32 %76, 0
  br i1 %.not3243.not, label %.loopexit, label %_ZNK10Node_ArrayixEj.exit.lr.ph

_ZNK10Node_ArrayixEj.exit.lr.ph:                  ; preds = %.preheader
  %77 = load i32, ptr %13, align 8
  %78 = load ptr, ptr %14, align 8
  %79 = zext i32 %77 to i64
  %wide.trip.count = zext i32 %76 to i64
  br label %_ZNK10Node_ArrayixEj.exit

80:                                               ; preds = %_ZNK10Node_ArrayixEj.exit
  %indvars.iv.next = add nuw nsw i64 %indvars.iv, 1
  %exitcond.not = icmp eq i64 %indvars.iv.next, %wide.trip.count
  br i1 %exitcond.not, label %.loopexit, label %_ZNK10Node_ArrayixEj.exit, !llvm.loop !61

_ZNK10Node_ArrayixEj.exit:                        ; preds = %_ZNK10Node_ArrayixEj.exit.lr.ph, %80
  %indvars.iv = phi i64 [ 0, %_ZNK10Node_ArrayixEj.exit.lr.ph ], [ %indvars.iv.next, %80 ]
  %81 = icmp ult i64 %indvars.iv, %79
  tail call void @llvm.assume(i1 %81)
  %82 = getelementptr inbounds ptr, ptr %78, i64 %indvars.iv
  %83 = load ptr, ptr %82, align 8
  %84 = getelementptr inbounds i8, ptr %83, i64 44
  %85 = load i32, ptr %84, align 4
  %86 = and i32 %85, 3
  %87 = icmp ne i32 %86, 3
  %88 = and i32 %85, 63
  %89 = icmp eq i32 %88, 55
  %or.cond42 = or i1 %87, %89
  br i1 %or.cond42, label %80, label %.loopexit

.loopexit:                                        ; preds = %80, %_ZNK10Node_ArrayixEj.exit, %.preheader, %74, %48, %62, %71, %53, %_ZNK14PhaseIdealLoop4idomEP4Node.exit
  %.3 = phi i32 [ %.03049, %71 ], [ %.03049, %62 ], [ %.03049, %53 ], [ %.03049, %48 ], [ %.03049, %_ZNK14PhaseIdealLoop4idomEP4Node.exit ], [ 0, %74 ], [ 0, %.preheader ], [ 0, %80 ], [ 1, %_ZNK10Node_ArrayixEj.exit ]
  %.1 = phi ptr [ %.051, %71 ], [ %.051, %62 ], [ %.051, %53 ], [ %.051, %48 ], [ %.051, %_ZNK14PhaseIdealLoop4idomEP4Node.exit ], [ %.0.lcssa.i.i.i, %74 ], [ %.0.lcssa.i.i.i, %.preheader ], [ %.0.lcssa.i.i.i, %80 ], [ %.051, %_ZNK10Node_ArrayixEj.exit ]
  %.not = icmp eq ptr %.0.lcssa.i.i.i, %4
  br i1 %.not, label %._crit_edge, label %15, !llvm.loop !62

._crit_edge:                                      ; preds = %.loopexit, %2
  %.0.lcssa = phi ptr [ null, %2 ], [ %.1, %.loopexit ]
  ret ptr %.0.lcssa
}